target datalayout = "e-m:e-p270:32:32-p271:32:32-p272:64:64-i64:64-i128:128-f80:128-n8:16:32:64-S128"
target triple = "x86_64-pc-linux-gnu"

%struct.RString = type { %struct.RBasic, i64, %union.anon.12 }
%struct.RBasic = type { i64, i64 }
%union.anon.12 = type { %struct.anon.13 }
%struct.anon.13 = type { ptr, %union.anon.14 }
%union.anon.14 = type { i64 }
%struct.sockaddr_un = type { i16, [108 x i8] }
%struct.anon.15 = type { [1 x i8] }

@rb_eArgError = external global i64, align 8
@.str.64 = private unnamed_addr constant [62 x i8] c"too long unix socket path (%zu bytes given but %zu bytes max)\00", align 1

; Function Attrs: inlinehint nounwind sspstrong willreturn memory(read) uwtable
define internal i64 @RB_FL_TEST_RAW(i64 noundef %0, i64 noundef %1) #6 {
  %3 = alloca i64, align 8
  %4 = alloca i64, align 8
  store i64 %0, ptr %3, align 8, !tbaa !11
  store i64 %1, ptr %4, align 8, !tbaa !11
  %5 = load i64, ptr %3, align 8, !tbaa !11
  %6 = inttoptr i64 %5 to ptr
  %7 = getelementptr inbounds nuw %struct.RBasic, ptr %6, i32 0, i32 0
  %8 = load i64, ptr %7, align 8, !tbaa !99
  %9 = load i64, ptr %4, align 8, !tbaa !11
  %10 = and i64 %8, %9
  ret i64 %10
}

; Function Attrs: inlinehint nounwind sspstrong willreturn memory(read) uwtable
define internal zeroext i1 @RB_FL_ANY_RAW(i64 noundef %0, i64 noundef %1) #6 {
  %3 = alloca i64, align 8
  %4 = alloca i64, align 8
  store i64 %0, ptr %3, align 8, !tbaa !11
  store i64 %1, ptr %4, align 8, !tbaa !11
  %5 = load i64, ptr %3, align 8, !tbaa !11
  %6 = load i64, ptr %4, align 8, !tbaa !11
  %7 = call i64 @RB_FL_TEST_RAW(i64 noundef %5, i64 noundef %6) #25
  %8 = icmp ne i64 %7, 0
  ret i1 %8
}

; Function Attrs: alwaysinline nounwind
define internal ptr @memcpy.inline(ptr noalias nonnull %0, ptr noalias nonnull %1, i64 %2) #19 {
  %4 = alloca ptr, align 8
  %5 = alloca ptr, align 8
  %6 = alloca i64, align 8
  store ptr %0, ptr %4, align 8, !tbaa !103
  store ptr %1, ptr %5, align 8, !tbaa !103
  store i64 %2, ptr %6, align 8, !tbaa !11
  %7 = load ptr, ptr %4, align 8, !tbaa !103
  %8 = load ptr, ptr %5, align 8, !tbaa !103
  %9 = load i64, ptr %6, align 8, !tbaa !11
  %10 = load ptr, ptr %4, align 8, !tbaa !103
  %11 = call i64 @llvm.objectsize.i64.p0(ptr %10, i1 false, i1 true, i1 false)
  %12 = call ptr @__memcpy_chk(ptr noundef %7, ptr noundef %8, i64 noundef %9, i64 noundef %11) #24
  ret ptr %12
}

; Function Attrs: inlinehint nounwind sspstrong willreturn memory(read, argmem: readwrite) uwtable
define internal void @rbimpl_rstring_getmem(ptr dead_on_unwind noalias writable sret(%struct.RString) align 8 %0, i64 noundef %1) #14 {
  %3 = alloca i64, align 8
  store i64 %1, ptr %3, align 8, !tbaa !11
  %4 = load i64, ptr %3, align 8, !tbaa !11
  %5 = call zeroext i1 @RB_FL_ANY_RAW(i64 noundef %4, i64 noundef 8192) #25
  br i1 %5, label %6, label %9

6:                                                ; preds = %2
  %7 = load i64, ptr %3, align 8, !tbaa !11
  %8 = inttoptr i64 %7 to ptr
  call void @llvm.memcpy.p0.p0.i64(ptr align 8 %0, ptr align 8 %8, i64 40, i1 false), !tbaa.struct !100
  br label %20

9:                                                ; preds = %2
  %10 = load i64, ptr %3, align 8, !tbaa !11
  %11 = call i64 @RSTRING_LEN(i64 noundef %10) #25
  %12 = getelementptr inbounds nuw %struct.RString, ptr %0, i32 0, i32 1
  store i64 %11, ptr %12, align 8, !tbaa !18
  %13 = load i64, ptr %3, align 8, !tbaa !11
  %14 = inttoptr i64 %13 to ptr
  %15 = getelementptr inbounds nuw %struct.RString, ptr %14, i32 0, i32 2
  %16 = getelementptr inbounds nuw %struct.anon.15, ptr %15, i32 0, i32 0
  %17 = getelementptr inbounds [1 x i8], ptr %16, i64 0, i64 0
  %18 = getelementptr inbounds nuw %struct.RString, ptr %0, i32 0, i32 2
  %19 = getelementptr inbounds nuw %struct.anon.13, ptr %18, i32 0, i32 0
  store ptr %17, ptr %19, align 8, !tbaa !17
  br label %20

20:                                               ; preds = %9, %6
  ret void
}

; Function Attrs: inlinehint nounwind sspstrong memory(argmem: readwrite, inaccessiblemem: readwrite) uwtable
define internal nonnull ptr @ruby_nonempty_memcpy(ptr noundef nonnull %0, ptr noundef %1, i64 noundef %2) #16 {
  %4 = alloca ptr, align 8
  %5 = alloca ptr, align 8
  %6 = alloca ptr, align 8
  %7 = alloca i64, align 8
  store ptr %0, ptr %5, align 8, !tbaa !103
  store ptr %1, ptr %6, align 8, !tbaa !103
  store i64 %2, ptr %7, align 8, !tbaa !11
  %8 = load i64, ptr %7, align 8, !tbaa !11
  %9 = icmp ne i64 %8, 0
  br i1 %9, label %10, label %15

10:                                               ; preds = %3
  %11 = load ptr, ptr %5, align 8, !tbaa !103
  %12 = load ptr, ptr %6, align 8, !tbaa !103
  %13 = load i64, ptr %7, align 8, !tbaa !11
  %14 = call ptr @memcpy.inline(ptr noundef %11, ptr noundef %12, i64 noundef %13) #24
  store ptr %14, ptr %4, align 8
  br label %17

15:                                               ; preds = %3
  %16 = load ptr, ptr %5, align 8, !tbaa !103
  store ptr %16, ptr %4, align 8
  br label %17

17:                                               ; preds = %15, %10
  %18 = load ptr, ptr %4, align 8
  ret ptr %18
}

; Function Attrs: inlinehint nounwind sspstrong uwtable
define internal ptr @RSTRING_PTR(i64 noundef %0) #8 {
  %2 = alloca i64, align 8
  %3 = alloca ptr, align 8
  %4 = alloca %struct.RString, align 8
  store i64 %0, ptr %2, align 8, !tbaa !11
  call void @llvm.lifetime.start.p0(i64 8, ptr %3) #24
  %5 = load i64, ptr %2, align 8, !tbaa !11
  call void @rbimpl_rstring_getmem(ptr dead_on_unwind writable sret(%struct.RString) align 8 %4, i64 noundef %5) #27
  %6 = getelementptr inbounds nuw %struct.RString, ptr %4, i32 0, i32 2
  %7 = getelementptr inbounds nuw %struct.anon.13, ptr %6, i32 0, i32 0
  %8 = load ptr, ptr %7, align 8, !tbaa !17
  store ptr %8, ptr %3, align 8, !tbaa !6
  %9 = load ptr, ptr %3, align 8, !tbaa !6
  call void @llvm.lifetime.end.p0(i64 8, ptr %3) #24
  ret ptr %9
}

; Function Attrs: inlinehint nounwind sspstrong willreturn memory(read) uwtable
define internal i64 @RSTRING_LEN(i64 noundef %0) #6 {
  %2 = alloca i64, align 8
  store i64 %0, ptr %2, align 8, !tbaa !11
  %3 = load i64, ptr %2, align 8, !tbaa !11
  %4 = inttoptr i64 %3 to ptr
  %5 = getelementptr inbounds nuw %struct.RString, ptr %4, i32 0, i32 1
  %6 = load i64, ptr %5, align 8, !tbaa !18
  ret i64 %6
}

; Function Attrs: alwaysinline nounwind
define internal ptr @memset.inline(ptr nonnull %0, i32 %1, i64 %2) #19 {
  %4 = alloca ptr, align 8
  %5 = alloca i32, align 4
  %6 = alloca i64, align 8
  store ptr %0, ptr %4, align 8, !tbaa !103
  store i32 %1, ptr %5, align 4, !tbaa !13
  store i64 %2, ptr %6, align 8, !tbaa !11
  %7 = load ptr, ptr %4, align 8, !tbaa !103
  %8 = load i32, ptr %5, align 4, !tbaa !13
  %9 = load i64, ptr %6, align 8, !tbaa !11
  %10 = load ptr, ptr %4, align 8, !tbaa !103
  %11 = call i64 @llvm.objectsize.i64.p0(ptr %10, i1 false, i1 true, i1 false)
  %12 = call ptr @__memset_chk(ptr noundef %7, i32 noundef %8, i64 noundef %9, i64 noundef %11) #24
  ret ptr %12
}

; Function Attrs: nounwind sspstrong uwtable
define internal i64 @sock_s_pack_sockaddr_un(i64 noundef %0, i64 noundef %1) #0 {
  %3 = alloca i64, align 8
  %4 = alloca i64, align 8
  %5 = alloca %struct.sockaddr_un, align 2
  %6 = alloca i64, align 8
  %7 = alloca ptr, align 8
  %8 = alloca i32, align 4
  store i64 %0, ptr %3, align 8, !tbaa !11
  store i64 %1, ptr %4, align 8, !tbaa !11
  call void @llvm.lifetime.start.p0(i64 110, ptr %5) #24
  call void @llvm.lifetime.start.p0(i64 8, ptr %6) #24
  %9 = call i64 @rb_string_value(ptr noundef %4)
  br label %10

10:                                               ; preds = %2
  call void @llvm.lifetime.start.p0(i64 8, ptr %7) #24
  store ptr %5, ptr %7, align 8, !tbaa !89
  call void @llvm.lifetime.start.p0(i64 4, ptr %8) #24
  store i32 110, ptr %8, align 4, !tbaa !13
  %11 = load ptr, ptr %7, align 8, !tbaa !89
  %12 = load i32, ptr %8, align 4, !tbaa !13
  %13 = zext i32 %12 to i64
  %14 = call ptr @memset.inline(ptr noundef %11, i32 noundef 0, i64 noundef %13) #24
  %15 = load ptr, ptr %7, align 8, !tbaa !89
  %16 = getelementptr inbounds nuw %struct.sockaddr_un, ptr %15, i32 0, i32 0
  store i16 1, ptr %16, align 2, !tbaa !91
  call void @llvm.lifetime.end.p0(i64 4, ptr %8) #24
  call void @llvm.lifetime.end.p0(i64 8, ptr %7) #24
  br label %17

17:                                               ; preds = %10
  br label %18

18:                                               ; preds = %17
  %19 = load i64, ptr %4, align 8, !tbaa !11
  %20 = call i64 @RSTRING_LEN(i64 noundef %19) #25
  %21 = icmp ult i64 108, %20
  br i1 %21, label %22, label %26

22:                                               ; preds = %18
  %23 = load i64, ptr @rb_eArgError, align 8, !tbaa !11
  %24 = load i64, ptr %4, align 8, !tbaa !11
  %25 = call i64 @RSTRING_LEN(i64 noundef %24) #25
  call void (i64, ptr, ...) @rb_raise(i64 noundef %23, ptr noundef @.str.64, i64 noundef %25, i64 noundef 108) #23
  unreachable

26:                                               ; preds = %18
  %27 = getelementptr inbounds nuw %struct.sockaddr_un, ptr %5, i32 0, i32 1
  %28 = getelementptr inbounds [108 x i8], ptr %27, i64 0, i64 0
  %29 = load i64, ptr %4, align 8, !tbaa !11
  %30 = call ptr @RSTRING_PTR(i64 noundef %29)
  %31 = load i64, ptr %4, align 8, !tbaa !11
  %32 = call i64 @RSTRING_LEN(i64 noundef %31) #25
  %33 = call nonnull ptr @ruby_nonempty_memcpy(ptr noundef %28, ptr noundef %30, i64 noundef %32) #29
  br i1 false, label %34, label %35

34:                                               ; preds = %26
  br label %35

35:                                               ; preds = %34, %26
  %36 = phi i1 [ false, %26 ], [ false, %34 ]
  %37 = select i1 %36, ptr @rb_str_new_static, ptr @rb_str_new
  %38 = load i64, ptr %4, align 8, !tbaa !11
  %39 = call i32 @rsock_unix_sockaddr_len(i64 noundef %38)
  %40 = zext i32 %39 to i64
  %41 = call i64 %37(ptr noundef %5, i64 noundef %40)
  store i64 %41, ptr %6, align 8, !tbaa !11
  %42 = load i64, ptr %6, align 8, !tbaa !11
  call void @llvm.lifetime.end.p0(i64 8, ptr %6) #24
  call void @llvm.lifetime.end.p0(i64 110, ptr %5) #24
  ret i64 %42
}