; Function Attrs: nounwind sspstrong uwtable
define internal i64 @sock_s_pack_sockaddr_un(i64 %0, i64 noundef %1) #0 {
  %3 = alloca i64, align 8
  %4 = alloca %struct.sockaddr_un, align 2
  store i64 %1, ptr %3, align 8, !tbaa !10
  call void @llvm.lifetime.start.p0(i64 110, ptr nonnull %4) #16
  %5 = call i64 @rb_string_value(ptr noundef nonnull %3) #16
  %6 = getelementptr inbounds nuw i8, ptr %4, i64 2
  call void @llvm.memset.p0.i64(ptr noundef nonnull align 2 dereferenceable(110) %6, i8 noundef 0, i64 noundef 108, i1 noundef false) #16
  store i16 1, ptr %4, align 2, !tbaa !99
  %7 = load i64, ptr %3, align 8, !tbaa !10
  %8 = inttoptr i64 %7 to ptr
  %9 = getelementptr inbounds nuw i8, ptr %8, i64 16
  %10 = load i64, ptr %9, align 8, !tbaa !17
  %11 = icmp ugt i64 %10, 108
  br i1 %11, label %12, label %14

12:                                               ; preds = %2
  %13 = load i64, ptr @rb_eArgError, align 8, !tbaa !10
  call void (i64, ptr, ...) @rb_raise(i64 noundef %13, ptr noundef nonnull @.str.64, i64 noundef %10, i64 noundef 108) #18
  unreachable

14:                                               ; preds = %2
  %15 = getelementptr inbounds nuw i8, ptr %4, i64 2
  %16 = load i64, ptr %8, align 8, !tbaa !12, !noalias !101
  %17 = and i64 %16, 8192
  %.not.i.i = icmp eq i64 %17, 0
  %18 = getelementptr inbounds nuw i8, ptr %8, i64 24
  br i1 %.not.i.i, label %RSTRING_PTR.exit, label %19

19:                                               ; preds = %14
  %.sroa.2.0.copyload.i = load ptr, ptr %18, align 8
  br label %RSTRING_PTR.exit

RSTRING_PTR.exit:                                 ; preds = %14, %19
  %.sroa.2.0.i = phi ptr [ %.sroa.2.0.copyload.i, %19 ], [ %18, %14 ]
  %.not.i = icmp eq i64 %10, 0
  br i1 %.not.i, label %ruby_nonempty_memcpy.exit, label %20

20:                                               ; preds = %RSTRING_PTR.exit
  %21 = call ptr @__memcpy_chk(ptr noundef nonnull %15, ptr noundef nonnull readonly %.sroa.2.0.i, i64 noundef range(i64 1, 0) %10, i64 noundef 108) #16, !alias.scope !104
  br label %ruby_nonempty_memcpy.exit

ruby_nonempty_memcpy.exit:                        ; preds = %RSTRING_PTR.exit, %20
  %22 = call i32 @rsock_unix_sockaddr_len(i64 noundef %7) #16
  %23 = zext i32 %22 to i64
  %24 = call i64 @rb_str_new(ptr noundef nonnull %4, i64 noundef %23) #16
  call void @llvm.lifetime.end.p0(i64 110, ptr nonnull %4) #16
  ret i64 %24
}